(lp0
VMMM
p1
aVABT
p2
aVABBV
p3
aVACN
p4
aVATVI
p5
aVAYI
p6
aVADBE
p7
aVAAP
p8
aVAES
p9
aVAET
p10
aVAMG
p11
aVAFL
p12
aVA
p13
aVAPD
p14
aVAKAM
p15
aVALK
p16
aVALB
p17
aVAGN
p18
aVLNT
p19
aVALXN
p20
aVALLE
p21
aVADS
p22
aVALL
p23
aVGOOGL
p24
aVGOOG
p25
aVMO
p26
aVAMZN
p27
aVAEE
p28
aVAAL
p29
aVAEP
p30
aVAXP
p31
aVAIG
p32
aVAMT
p33
aVAWK
p34
aVAMP
p35
aVABC
p36
aVAME
p37
aVAMGN
p38
aVAPH
p39
aVAPC
p40
aVADI
p41
aVANTM
p42
aVAON
p43
aVAPA
p44
aVAIV
p45
aVAAPL
p46
aVAMAT
p47
aVADM
p48
aVARNC
p49
aVAJG
p50
aVAIZ
p51
aVT
p52
aVADSK
p53
aVADP
p54
aVAN
p55
aVAZO
p56
aVAVB
p57
aVAVY
p58
aVBHI
p59
aVBLL
p60
aVBAC
p61
aVBK
p62
aVBCR
p63
aVBAX
p64
aVBBT
p65
aVBDX
p66
aVBBBY
p67
aVBRK.B
p68
aVBBY
p69
aVBIIB
p70
aVBLK
p71
aVHRB
p72
aVBA
p73
aVBWA
p74
aVBXP
p75
aVBSX
p76
aVBMY
p77
aVAVGO
p78
aVBF.B
p79
aVCHRW
p80
aVCA
p81
aVCOG
p82
aVCPB
p83
aVCOF
p84
aVCAH
p85
aVHSIC
p86
aVKMX
p87
aVCCL
p88
aVCAT
p89
aVCBG
p90
aVCBS
p91
aVCELG
p92
aVCNC
p93
aVCNP
p94
aVCTL
p95
aVCERN
p96
aVCF
p97
aVSCHW
p98
aVCHTR
p99
aVCHK
p100
aVCVX
p101
aVCMG
p102
aVCB
p103
aVCHD
p104
aVCI
p105
aVXEC
p106
aVCINF
p107
aVCTAS
p108
aVCSCO
p109
aVC
p110
aVCFG
p111
aVCTXS
p112
aVCLX
p113
aVCME
p114
aVCMS
p115
aVCOH
p116
aVKO
p117
aVCTSH
p118
aVCL
p119
aVCMCSA
p120
aVCMA
p121
aVCAG
p122
aVCXO
p123
aVCOP
p124
aVED
p125
aVSTZ
p126
aVGLW
p127
aVCOST
p128
aVCOTY
p129
aVCCI
p130
aVCSRA
p131
aVCSX
p132
aVCMI
p133
aVCVS
p134
aVDHI
p135
aVDHR
p136
aVDRI
p137
aVDVA
p138
aVDE
p139
aVDLPH
p140
aVDAL
p141
aVXRAY
p142
aVDVN
p143
aVDLR
p144
aVDFS
p145
aVDISCA
p146
aVDISCK
p147
aVDG
p148
aVDLTR
p149
aVD
p150
aVDOV
p151
aVDOW
p152
aVDPS
p153
aVDTE
p154
aVDD
p155
aVDUK
p156
aVDNB
p157
aVETFC
p158
aVEMN
p159
aVETN
p160
aVEBAY
p161
aVECL
p162
aVEIX
p163
aVEW
p164
aVEA
p165
aVEMR
p166
aVENDP
p167
aVETR
p168
aVEVHC
p169
aVEOG
p170
aVEQT
p171
aVEFX
p172
aVEQIX
p173
aVEQR
p174
aVESS
p175
aVEL
p176
aVES
p177
aVEXC
p178
aVEXPE
p179
aVEXPD
p180
aVESRX
p181
aVEXR
p182
aVXOM
p183
aVFFIV
p184
aVFB
p185
aVFAST
p186
aVFRT
p187
aVFDX
p188
aVFIS
p189
aVFITB
p190
aVFSLR
p191
aVFE
p192
aVFISV
p193
aVFLIR
p194
aVFLS
p195
aVFLR
p196
aVFMC
p197
aVFTI
p198
aVFL
p199
aVF
p200
aVFTV
p201
aVFBHS
p202
aVBEN
p203
aVFCX
p204
aVFTR
p205
aVGPS
p206
aVGRMN
p207
aVGD
p208
aVGE
p209
aVGGP
p210
aVGIS
p211
aVGM
p212
aVGPC
p213
aVGILD
p214
aVGPN
p215
aVGS
p216
aVGT
p217
aVGWW
p218
aVHAL
p219
aVHBI
p220
aVHOG
p221
aVHAR
p222
aVHRS
p223
aVHIG
p224
aVHAS
p225
aVHCA
p226
aVHCP
p227
aVHP
p228
aVHES
p229
aVHPE
p230
aVHOLX
p231
aVHD
p232
aVHON
p233
aVHRL
p234
aVHST
p235
aVHPQ
p236
aVHUM
p237
aVHBAN
p238
aVIDXX
p239
aVITW
p240
aVILMN
p241
aVIR
p242
aVINTC
p243
aVICE
p244
aVIBM
p245
aVIP
p246
aVIPG
p247
aVIFF
p248
aVINTU
p249
aVISRG
p250
aVIVZ
p251
aVIRM
p252
aVJEC
p253
aVJBHT
p254
aVSJM
p255
aVJNJ
p256
aVJCI
p257
aVJPM
p258
aVJNPR
p259
aVKSU
p260
aVK
p261
aVKEY
p262
aVKMB
p263
aVKIM
p264
aVKMI
p265
aVKLAC
p266
aVKSS
p267
aVKHC
p268
aVKR
p269
aVLB
p270
aVLLL
p271
aVLH
p272
aVLRCX
p273
aVLEG
p274
aVLEN
p275
aVLVLT
p276
aVLUK
p277
aVLLY
p278
aVLNC
p279
aVLLTC
p280
aVLKQ
p281
aVLMT
p282
aVL
p283
aVLOW
p284
aVLYB
p285
aVMTB
p286
aVMAC
p287
aVM
p288
aVMNK
p289
aVMRO
p290
aVMPC
p291
aVMAR
p292
aVMMC
p293
aVMLM
p294
aVMAS
p295
aVMA
p296
aVMAT
p297
aVMKC
p298
aVMCD
p299
aVMCK
p300
aVMJN
p301
aVMDT
p302
aVMRK
p303
aVMET
p304
aVMTD
p305
aVKORS
p306
aVMCHP
p307
aVMU
p308
aVMSFT
p309
aVMAA
p310
aVMHK
p311
aVTAP
p312
aVMDLZ
p313
aVMON
p314
aVMNST
p315
aVMCO
p316
aVMS
p317
aVMOS
p318
aVMSI
p319
aVMUR
p320
aVMYL
p321
aVNDAQ
p322
aVNOV
p323
aVNAVI
p324
aVNTAP
p325
aVNFLX
p326
aVNWL
p327
aVNFX
p328
aVNEM
p329
aVNWSA
p330
aVNWS
p331
aVNEE
p332
aVNLSN
p333
aVNKE
p334
aVNI
p335
aVNBL
p336
aVJWN
p337
aVNSC
p338
aVNTRS
p339
aVNOC
p340
aVNRG
p341
aVNUE
p342
aVNVDA
p343
aVORLY
p344
aVOXY
p345
aVOMC
p346
aVOKE
p347
aVORCL
p348
aVPCAR
p349
aVPH
p350
aVPDCO
p351
aVPAYX
p352
aVPYPL
p353
aVPNR
p354
aVPBCT
p355
aVPEP
p356
aVPKI
p357
aVPRGO
p358
aVPFE
p359
aVPCG
p360
aVPM
p361
aVPSX
p362
aVPNW
p363
aVPXD
p364
aVPBI
p365
aVPNC
p366
aVRL
p367
aVPPG
p368
aVPPL
p369
aVPX
p370
aVPCLN
p371
aVPFG
p372
aVPG
p373
aVPGR
p374
aVPLD
p375
aVPRU
p376
aVPEG
p377
aVPSA
p378
aVPHM
p379
aVPVH
p380
aVQRVO
p381
aVPWR
p382
aVQCOM
p383
aVDGX
p384
aVRRC
p385
aVRTN
p386
aVO
p387
aVRHT
p388
aVREGN
p389
aVRF
p390
aVRSG
p391
aVRAI
p392
aVRHI
p393
aVROK
p394
aVCOL
p395
aVROP
p396
aVROST
p397
aVRCL
p398
aVR
p399
aVCRM
p400
aVSCG
p401
aVSLB
p402
aVSNI
p403
aVSTX
p404
aVSEE
p405
aVSRE
p406
aVSHW
p407
aVSIG
p408
aVSPG
p409
aVSWKS
p410
aVSLG
p411
aVSNA
p412
aVSO
p413
aVLUV
p414
aVSWN
p415
aVSE
p416
aVSPGI
p417
aVSWK
p418
aVSPLS
p419
aVSBUX
p420
aVSTT
p421
aVSRCL
p422
aVSYK
p423
aVSTI
p424
aVSYMC
p425
aVSYF
p426
aVSYY
p427
aVTROW
p428
aVTGT
p429
aVTEL
p430
aVTGNA
p431
aVTDC
p432
aVTSO
p433
aVTXN
p434
aVTXT
p435
aVCOO
p436
aVHSY
p437
aVTRV
p438
aVTMO
p439
aVTIF
p440
aVTWX
p441
aVTJX
p442
aVTMK
p443
aVTSS
p444
aVTSCO
p445
aVTDG
p446
aVRIG
p447
aVTRIP
p448
aVFOXA
p449
aVFOX
p450
aVTSN
p451
aVUDR
p452
aVULTA
p453
aVUSB
p454
aVUA
p455
aVUAA
p456
aVUNP
p457
aVUAL
p458
aVUNH
p459
aVUPS
p460
aVURI
p461
aVUTX
p462
aVUHS
p463
aVUNM
p464
aVURBN
p465
aVVFC
p466
aVVLO
p467
aVVAR
p468
aVVTR
p469
aVVRSN
p470
aVVRSK
p471
aVVZ
p472
aVVRTX
p473
aVVIAB
p474
aVV
p475
aVVNO
p476
aVVMC
p477
aVWMT
p478
aVWBA
p479
aVDIS
p480
aVWM
p481
aVWAT
p482
aVWEC
p483
aVWFC
p484
aVHCN
p485
aVWDC
p486
aVWU
p487
aVWRK
p488
aVWY
p489
aVWHR
p490
aVWFM
p491
aVWMB
p492
aVWLTW
p493
aVWYN
p494
aVWYNN
p495
aVXEL
p496
aVXRX
p497
aVXLNX
p498
aVXL
p499
aVXYL
p500
aVYHOO
p501
aVYUM
p502
aVZBH
p503
aVZION
p504
aVZTS
p505
a.